target datalayout = "e-m:e-p270:32:32-p271:32:32-p272:64:64-i64:64-i128:128-f80:128-n8:16:32:64-S128"
target triple = "x86_64-pc-linux-gnu"

%struct.UConverterFromUnicodeArgs = type { i16, i8, ptr, ptr, ptr, ptr, ptr, ptr }
%struct.UConverter = type { ptr, ptr, ptr, ptr, ptr, ptr, ptr, i32, i8, i8, i8, i8, i8, [7 x i8], i32, i32, i32, i32, i8, i8, i8, i8, i8, i8, i8, i8, [8 x i8], [32 x i8], [2 x i16], [2 x i16], [32 x i16], i32, [19 x i16], [31 x i8], i8, i8, i8, i32 }

; Function Attrs: inlinehint mustprogress nounwind uwtable
define internal noundef signext i8 @_ZL9U_FAILURE10UErrorCode(i32 noundef %0) #2 {
  %2 = alloca i32, align 4
  store i32 %0, ptr %2, align 4, !tbaa !9
  %3 = load i32, ptr %2, align 4, !tbaa !9
  %4 = icmp sgt i32 %3, 0
  %5 = zext i1 %4 to i8
  ret i8 %5
}

; Function Attrs: mustprogress uwtable
define void @ucnv_fromUnicode_77(ptr noundef %0, ptr noundef %1, ptr noundef %2, ptr noundef %3, ptr noundef %4, ptr noundef %5, i8 noundef signext %6, ptr noundef %7) #0 {
  %9 = alloca ptr, align 8
  %10 = alloca ptr, align 8
  %11 = alloca ptr, align 8
  %12 = alloca ptr, align 8
  %13 = alloca ptr, align 8
  %14 = alloca ptr, align 8
  %15 = alloca i8, align 1
  %16 = alloca ptr, align 8
  %17 = alloca %struct.UConverterFromUnicodeArgs, align 8
  %18 = alloca ptr, align 8
  %19 = alloca ptr, align 8
  %20 = alloca i32, align 4
  store ptr %0, ptr %9, align 8, !tbaa !11
  store ptr %1, ptr %10, align 8, !tbaa !84
  store ptr %2, ptr %11, align 8, !tbaa !3
  store ptr %3, ptr %12, align 8, !tbaa !86
  store ptr %4, ptr %13, align 8, !tbaa !13
  store ptr %5, ptr %14, align 8, !tbaa !20
  store i8 %6, ptr %15, align 1, !tbaa !19
  store ptr %7, ptr %16, align 8, !tbaa !8
  call void @llvm.lifetime.start.p0(i64 56, ptr %17) #11
  call void @llvm.lifetime.start.p0(i64 8, ptr %18) #11
  call void @llvm.lifetime.start.p0(i64 8, ptr %19) #11
  %21 = load ptr, ptr %16, align 8, !tbaa !8
  %22 = icmp eq ptr %21, null
  br i1 %22, label %28, label %23

23:                                               ; preds = %8
  %24 = load ptr, ptr %16, align 8, !tbaa !8
  %25 = load i32, ptr %24, align 4, !tbaa !9
  %26 = call noundef signext i8 @_ZL9U_FAILURE10UErrorCode(i32 noundef %25)
  %27 = icmp ne i8 %26, 0
  br i1 %27, label %28, label %29

28:                                               ; preds = %23, %8
  store i32 1, ptr %20, align 4
  br label %157

29:                                               ; preds = %23
  %30 = load ptr, ptr %9, align 8, !tbaa !11
  %31 = icmp eq ptr %30, null
  br i1 %31, label %38, label %32

32:                                               ; preds = %29
  %33 = load ptr, ptr %10, align 8, !tbaa !84
  %34 = icmp eq ptr %33, null
  br i1 %34, label %38, label %35

35:                                               ; preds = %32
  %36 = load ptr, ptr %12, align 8, !tbaa !86
  %37 = icmp eq ptr %36, null
  br i1 %37, label %38, label %40

38:                                               ; preds = %35, %32, %29
  %39 = load ptr, ptr %16, align 8, !tbaa !8
  store i32 1, ptr %39, align 4, !tbaa !9
  store i32 1, ptr %20, align 4
  br label %157

40:                                               ; preds = %35
  %41 = load ptr, ptr %12, align 8, !tbaa !86
  %42 = load ptr, ptr %41, align 8, !tbaa !13
  store ptr %42, ptr %18, align 8, !tbaa !13
  %43 = load ptr, ptr %10, align 8, !tbaa !84
  %44 = load ptr, ptr %43, align 8, !tbaa !3
  store ptr %44, ptr %19, align 8, !tbaa !3
  %45 = load ptr, ptr %13, align 8, !tbaa !13
  %46 = ptrtoint ptr %45 to i64
  %47 = add i64 %46, 2147483647
  %48 = load ptr, ptr %13, align 8, !tbaa !13
  %49 = ptrtoint ptr %48 to i64
  %50 = icmp ugt i64 %47, %49
  br i1 %50, label %51, label %55

51:                                               ; preds = %40
  %52 = load ptr, ptr %13, align 8, !tbaa !13
  %53 = ptrtoint ptr %52 to i64
  %54 = add i64 %53, 2147483647
  br label %56

55:                                               ; preds = %40
  br label %56

56:                                               ; preds = %55, %51
  %57 = phi i64 [ %54, %51 ], [ -1, %55 ]
  %58 = inttoptr i64 %57 to ptr
  %59 = load ptr, ptr %13, align 8, !tbaa !13
  %60 = icmp eq ptr %58, %59
  br i1 %60, label %61, label %64

61:                                               ; preds = %56
  %62 = load ptr, ptr %13, align 8, !tbaa !13
  %63 = getelementptr inbounds i8, ptr %62, i64 -1
  store ptr %63, ptr %13, align 8, !tbaa !13
  br label %64

64:                                               ; preds = %61, %56
  %65 = load ptr, ptr %13, align 8, !tbaa !13
  %66 = load ptr, ptr %18, align 8, !tbaa !13
  %67 = icmp ult ptr %65, %66
  br i1 %67, label %103, label %68

68:                                               ; preds = %64
  %69 = load ptr, ptr %11, align 8, !tbaa !3
  %70 = load ptr, ptr %19, align 8, !tbaa !3
  %71 = icmp ult ptr %69, %70
  br i1 %71, label %103, label %72

72:                                               ; preds = %68
  %73 = load ptr, ptr %13, align 8, !tbaa !13
  %74 = load ptr, ptr %18, align 8, !tbaa !13
  %75 = ptrtoint ptr %73 to i64
  %76 = ptrtoint ptr %74 to i64
  %77 = sub i64 %75, %76
  %78 = sdiv exact i64 %77, 2
  %79 = icmp ugt i64 %78, 1073741823
  br i1 %79, label %80, label %84

80:                                               ; preds = %72
  %81 = load ptr, ptr %13, align 8, !tbaa !13
  %82 = load ptr, ptr %18, align 8, !tbaa !13
  %83 = icmp ugt ptr %81, %82
  br i1 %83, label %103, label %84

84:                                               ; preds = %80, %72
  %85 = load ptr, ptr %11, align 8, !tbaa !3
  %86 = load ptr, ptr %19, align 8, !tbaa !3
  %87 = ptrtoint ptr %85 to i64
  %88 = ptrtoint ptr %86 to i64
  %89 = sub i64 %87, %88
  %90 = icmp ugt i64 %89, 2147483647
  br i1 %90, label %91, label %95

91:                                               ; preds = %84
  %92 = load ptr, ptr %11, align 8, !tbaa !3
  %93 = load ptr, ptr %19, align 8, !tbaa !3
  %94 = icmp ugt ptr %92, %93
  br i1 %94, label %103, label %95

95:                                               ; preds = %91, %84
  %96 = load ptr, ptr %13, align 8, !tbaa !13
  %97 = load ptr, ptr %18, align 8, !tbaa !13
  %98 = ptrtoint ptr %96 to i64
  %99 = ptrtoint ptr %97 to i64
  %100 = sub i64 %98, %99
  %101 = and i64 %100, 1
  %102 = icmp ne i64 %101, 0
  br i1 %102, label %103, label %105

103:                                              ; preds = %95, %91, %80, %68, %64
  %104 = load ptr, ptr %16, align 8, !tbaa !8
  store i32 1, ptr %104, align 4, !tbaa !9
  store i32 1, ptr %20, align 4
  br label %157

105:                                              ; preds = %95
  %106 = load ptr, ptr %9, align 8, !tbaa !11
  %107 = getelementptr inbounds nuw %struct.UConverter, ptr %106, i32 0, i32 21
  %108 = load i8, ptr %107, align 1, !tbaa !75
  %109 = sext i8 %108 to i32
  %110 = icmp sgt i32 %109, 0
  br i1 %110, label %111, label %119

111:                                              ; preds = %105
  %112 = load ptr, ptr %9, align 8, !tbaa !11
  %113 = load ptr, ptr %10, align 8, !tbaa !84
  %114 = load ptr, ptr %11, align 8, !tbaa !3
  %115 = load ptr, ptr %16, align 8, !tbaa !8
  %116 = call noundef signext i8 @_ZL30ucnv_outputOverflowFromUnicodeP10UConverterPPcPKcPPiP10UErrorCode(ptr noundef %112, ptr noundef %113, ptr noundef %114, ptr noundef %14, ptr noundef %115)
  %117 = icmp ne i8 %116, 0
  br i1 %117, label %118, label %119

118:                                              ; preds = %111
  store i32 1, ptr %20, align 4
  br label %157

119:                                              ; preds = %111, %105
  %120 = load i8, ptr %15, align 1, !tbaa !19
  %121 = icmp ne i8 %120, 0
  br i1 %121, label %133, label %122

122:                                              ; preds = %119
  %123 = load ptr, ptr %18, align 8, !tbaa !13
  %124 = load ptr, ptr %13, align 8, !tbaa !13
  %125 = icmp eq ptr %123, %124
  br i1 %125, label %126, label %133

126:                                              ; preds = %122
  %127 = load ptr, ptr %9, align 8, !tbaa !11
  %128 = getelementptr inbounds nuw %struct.UConverter, ptr %127, i32 0, i32 34
  %129 = load i8, ptr %128, align 1, !tbaa !78
  %130 = sext i8 %129 to i32
  %131 = icmp sge i32 %130, 0
  br i1 %131, label %132, label %133

132:                                              ; preds = %126
  store i32 1, ptr %20, align 4
  br label %157

133:                                              ; preds = %126, %122, %119
  %134 = load ptr, ptr %9, align 8, !tbaa !11
  %135 = getelementptr inbounds nuw %struct.UConverterFromUnicodeArgs, ptr %17, i32 0, i32 2
  store ptr %134, ptr %135, align 8, !tbaa !42
  %136 = load i8, ptr %15, align 1, !tbaa !19
  %137 = getelementptr inbounds nuw %struct.UConverterFromUnicodeArgs, ptr %17, i32 0, i32 1
  store i8 %136, ptr %137, align 2, !tbaa !88
  %138 = load ptr, ptr %14, align 8, !tbaa !20
  %139 = getelementptr inbounds nuw %struct.UConverterFromUnicodeArgs, ptr %17, i32 0, i32 7
  store ptr %138, ptr %139, align 8, !tbaa !89
  %140 = load ptr, ptr %18, align 8, !tbaa !13
  %141 = getelementptr inbounds nuw %struct.UConverterFromUnicodeArgs, ptr %17, i32 0, i32 3
  store ptr %140, ptr %141, align 8, !tbaa !90
  %142 = load ptr, ptr %13, align 8, !tbaa !13
  %143 = getelementptr inbounds nuw %struct.UConverterFromUnicodeArgs, ptr %17, i32 0, i32 4
  store ptr %142, ptr %143, align 8, !tbaa !91
  %144 = load ptr, ptr %10, align 8, !tbaa !84
  %145 = load ptr, ptr %144, align 8, !tbaa !3
  %146 = getelementptr inbounds nuw %struct.UConverterFromUnicodeArgs, ptr %17, i32 0, i32 5
  store ptr %145, ptr %146, align 8, !tbaa !92
  %147 = load ptr, ptr %11, align 8, !tbaa !3
  %148 = getelementptr inbounds nuw %struct.UConverterFromUnicodeArgs, ptr %17, i32 0, i32 6
  store ptr %147, ptr %148, align 8, !tbaa !93
  %149 = getelementptr inbounds nuw %struct.UConverterFromUnicodeArgs, ptr %17, i32 0, i32 0
  store i16 56, ptr %149, align 8, !tbaa !94
  %150 = load ptr, ptr %16, align 8, !tbaa !8
  call void @_ZL24_fromUnicodeWithCallbackP25UConverterFromUnicodeArgsP10UErrorCode(ptr noundef %17, ptr noundef %150)
  %151 = getelementptr inbounds nuw %struct.UConverterFromUnicodeArgs, ptr %17, i32 0, i32 3
  %152 = load ptr, ptr %151, align 8, !tbaa !90
  %153 = load ptr, ptr %12, align 8, !tbaa !86
  store ptr %152, ptr %153, align 8, !tbaa !13
  %154 = getelementptr inbounds nuw %struct.UConverterFromUnicodeArgs, ptr %17, i32 0, i32 5
  %155 = load ptr, ptr %154, align 8, !tbaa !92
  %156 = load ptr, ptr %10, align 8, !tbaa !84
  store ptr %155, ptr %156, align 8, !tbaa !3
  store i32 0, ptr %20, align 4
  br label %157

157:                                              ; preds = %133, %132, %118, %103, %38, %28
  call void @llvm.lifetime.end.p0(i64 8, ptr %19) #11
  call void @llvm.lifetime.end.p0(i64 8, ptr %18) #11
  call void @llvm.lifetime.end.p0(i64 56, ptr %17) #11
  %158 = load i32, ptr %20, align 4
  switch i32 %158, label %160 [
    i32 0, label %159
    i32 1, label %159
  ]

159:                                              ; preds = %157, %157
  ret void

160:                                              ; preds = %157
  unreachable
}